target datalayout = "e-m:e-p270:32:32-p271:32:32-p272:64:64-i64:64-i128:128-f80:128-n8:16:32:64-S128"
target triple = "x86_64-unknown-linux-gnu"

%struct.UResourceBundle = type { ptr, ptr, ptr, ptr, ptr, [64 x i8], i32, i32, i8, i8, i32, i32, i32, i32 }

; Function Attrs: mustprogress uwtable
define i32 @ures_getType_75(ptr noundef %resB) #1 {
entry:
  %retval = alloca i32, align 4
  %resB.addr = alloca ptr, align 8
  store ptr %resB, ptr %resB.addr, align 8
  %0 = load ptr, ptr %resB.addr, align 8
  %cmp = icmp eq ptr %0, null
  br i1 %cmp, label %if.then, label %if.end

if.then:                                          ; preds = %entry
  store i32 -1, ptr %retval, align 4
  br label %return

if.end:                                           ; preds = %entry
  %1 = load ptr, ptr %resB.addr, align 8
  %fRes = getelementptr inbounds %struct.UResourceBundle, ptr %1, i32 0, i32 7
  %2 = load i32, ptr %fRes, align 4
  %call = call i32 @res_getPublicType_75(i32 noundef %2)
  store i32 %call, ptr %retval, align 4
  br label %return

return:                                           ; preds = %if.end, %if.then
  %3 = load i32, ptr %retval, align 4
  ret i32 %3
}