; Function Attrs: mustprogress uwtable
define i32 @ures_getType_75(ptr noundef readonly %resB) local_unnamed_addr #1 {
entry:
  %cmp = icmp eq ptr %resB, null
  br i1 %cmp, label %return, label %if.end

if.end:                                           ; preds = %entry
  %fRes = getelementptr inbounds i8, ptr %resB, i64 108
  %0 = load i32, ptr %fRes, align 4
  %call = tail call i32 @res_getPublicType_75(i32 noundef %0)
  br label %return

return:                                           ; preds = %entry, %if.end
  %retval.0 = phi i32 [ %call, %if.end ], [ -1, %entry ]
  ret i32 %retval.0
}